target datalayout = "e-m:e-p270:32:32-p271:32:32-p272:64:64-i64:64-i128:128-f80:128-n8:16:32:64-S128"
target triple = "x86_64-pc-linux-gnu"

%struct.jvmtiInterface_1_ = type { ptr, ptr, ptr, ptr, ptr, ptr, ptr, ptr, ptr, ptr, ptr, ptr, ptr, ptr, ptr, ptr, ptr, ptr, ptr, ptr, ptr, ptr, ptr, ptr, ptr, ptr, ptr, ptr, ptr, ptr, ptr, ptr, ptr, ptr, ptr, ptr, ptr, ptr, ptr, ptr, ptr, ptr, ptr, ptr, ptr, ptr, ptr, ptr, ptr, ptr, ptr, ptr, ptr, ptr, ptr, ptr, ptr, ptr, ptr, ptr, ptr, ptr, ptr, ptr, ptr, ptr, ptr, ptr, ptr, ptr, ptr, ptr, ptr, ptr, ptr, ptr, ptr, ptr, ptr, ptr, ptr, ptr, ptr, ptr, ptr, ptr, ptr, ptr, ptr, ptr, ptr, ptr, ptr, ptr, ptr, ptr, ptr, ptr, ptr, ptr, ptr, ptr, ptr, ptr, ptr, ptr, ptr, ptr, ptr, ptr, ptr, ptr, ptr, ptr, ptr, ptr, ptr, ptr, ptr, ptr, ptr, ptr, ptr, ptr, ptr, ptr, ptr, ptr, ptr, ptr, ptr, ptr, ptr, ptr, ptr, ptr, ptr, ptr, ptr, ptr, ptr, ptr, ptr, ptr, ptr, ptr, ptr, ptr, ptr, ptr, ptr, ptr, ptr, ptr, ptr, ptr }
%struct._JPLISEnvironment = type { ptr, ptr, i8 }
%struct._JPLISAgent = type { ptr, %struct._JPLISEnvironment, %struct._JPLISEnvironment, ptr, ptr, ptr, ptr, i8, i8, i8, i8, ptr, ptr, ptr, i8 }
%struct.JNINativeInterface_ = type { ptr, ptr, ptr, ptr, ptr, ptr, ptr, ptr, ptr, ptr, ptr, ptr, ptr, ptr, ptr, ptr, ptr, ptr, ptr, ptr, ptr, ptr, ptr, ptr, ptr, ptr, ptr, ptr, ptr, ptr, ptr, ptr, ptr, ptr, ptr, ptr, ptr, ptr, ptr, ptr, ptr, ptr, ptr, ptr, ptr, ptr, ptr, ptr, ptr, ptr, ptr, ptr, ptr, ptr, ptr, ptr, ptr, ptr, ptr, ptr, ptr, ptr, ptr, ptr, ptr, ptr, ptr, ptr, ptr, ptr, ptr, ptr, ptr, ptr, ptr, ptr, ptr, ptr, ptr, ptr, ptr, ptr, ptr, ptr, ptr, ptr, ptr, ptr, ptr, ptr, ptr, ptr, ptr, ptr, ptr, ptr, ptr, ptr, ptr, ptr, ptr, ptr, ptr, ptr, ptr, ptr, ptr, ptr, ptr, ptr, ptr, ptr, ptr, ptr, ptr, ptr, ptr, ptr, ptr, ptr, ptr, ptr, ptr, ptr, ptr, ptr, ptr, ptr, ptr, ptr, ptr, ptr, ptr, ptr, ptr, ptr, ptr, ptr, ptr, ptr, ptr, ptr, ptr, ptr, ptr, ptr, ptr, ptr, ptr, ptr, ptr, ptr, ptr, ptr, ptr, ptr, ptr, ptr, ptr, ptr, ptr, ptr, ptr, ptr, ptr, ptr, ptr, ptr, ptr, ptr, ptr, ptr, ptr, ptr, ptr, ptr, ptr, ptr, ptr, ptr, ptr, ptr, ptr, ptr, ptr, ptr, ptr, ptr, ptr, ptr, ptr, ptr, ptr, ptr, ptr, ptr, ptr, ptr, ptr, ptr, ptr, ptr, ptr, ptr, ptr, ptr, ptr, ptr, ptr, ptr, ptr, ptr, ptr, ptr, ptr, ptr, ptr, ptr, ptr, ptr, ptr, ptr, ptr, ptr, ptr, ptr, ptr, ptr, ptr, ptr, ptr, ptr, ptr, ptr, ptr }

; Function Attrs: nounwind uwtable
define hidden void @appendToClassLoaderSearch(ptr noundef %0, ptr noundef %1, ptr noundef %2, i8 noundef zeroext %3) #0 {
  %5 = alloca ptr, align 8
  %6 = alloca ptr, align 8
  %7 = alloca ptr, align 8
  %8 = alloca i8, align 1
  %9 = alloca ptr, align 8
  %10 = alloca i8, align 1
  %11 = alloca i32, align 4
  %12 = alloca ptr, align 8
  %13 = alloca i32, align 4
  %14 = alloca i8, align 1
  %15 = alloca [4096 x i8], align 16
  %16 = alloca i32, align 4
  store ptr %0, ptr %5, align 8
  store ptr %1, ptr %6, align 8
  store ptr %2, ptr %7, align 8
  store i8 %3, ptr %8, align 1
  %17 = load ptr, ptr %6, align 8
  %18 = getelementptr inbounds %struct._JPLISAgent, ptr %17, i32 0, i32 1
  %19 = getelementptr inbounds %struct._JPLISEnvironment, ptr %18, i32 0, i32 0
  %20 = load ptr, ptr %19, align 8
  store ptr %20, ptr %9, align 8
  %21 = load ptr, ptr %5, align 8
  %22 = load ptr, ptr %21, align 8
  %23 = getelementptr inbounds %struct.JNINativeInterface_, ptr %22, i32 0, i32 168
  %24 = load ptr, ptr %23, align 8
  %25 = load ptr, ptr %5, align 8
  %26 = load ptr, ptr %7, align 8
  %27 = call i32 %24(ptr noundef %25, ptr noundef %26)
  store i32 %27, ptr %13, align 4
  %28 = load ptr, ptr %5, align 8
  %29 = call zeroext i8 @checkForAndClearThrowable(ptr noundef %28)
  store i8 %29, ptr %10, align 1
  %30 = load i8, ptr %10, align 1
  %31 = icmp ne i8 %30, 0
  br i1 %31, label %107, label %32

32:                                               ; preds = %4
  %33 = load ptr, ptr %5, align 8
  %34 = load ptr, ptr %33, align 8
  %35 = getelementptr inbounds %struct.JNINativeInterface_, ptr %34, i32 0, i32 169
  %36 = load ptr, ptr %35, align 8
  %37 = load ptr, ptr %5, align 8
  %38 = load ptr, ptr %7, align 8
  %39 = call ptr %36(ptr noundef %37, ptr noundef %38, ptr noundef %14)
  store ptr %39, ptr %12, align 8
  %40 = load ptr, ptr %5, align 8
  %41 = call zeroext i8 @checkForAndClearThrowable(ptr noundef %40)
  store i8 %41, ptr %10, align 1
  %42 = load i8, ptr %10, align 1
  %43 = icmp ne i8 %42, 0
  br i1 %43, label %106, label %44

44:                                               ; preds = %32
  %45 = load ptr, ptr %12, align 8
  %46 = icmp ne ptr %45, null
  br i1 %46, label %47, label %106

47:                                               ; preds = %44
  %48 = load ptr, ptr %12, align 8
  %49 = load i32, ptr %13, align 4
  %50 = getelementptr inbounds [4096 x i8], ptr %15, i64 0, i64 0
  %51 = call i32 @convertUtf8ToPlatformString(ptr noundef %48, i32 noundef %49, ptr noundef %50, i32 noundef 4096)
  store i32 %51, ptr %16, align 4
  %52 = load i32, ptr %16, align 4
  %53 = icmp slt i32 %52, 0
  br i1 %53, label %54, label %63

54:                                               ; preds = %47
  %55 = load ptr, ptr %5, align 8
  call void @createAndThrowInternalError(ptr noundef %55)
  %56 = load ptr, ptr %5, align 8
  %57 = load ptr, ptr %56, align 8
  %58 = getelementptr inbounds %struct.JNINativeInterface_, ptr %57, i32 0, i32 170
  %59 = load ptr, ptr %58, align 8
  %60 = load ptr, ptr %5, align 8
  %61 = load ptr, ptr %7, align 8
  %62 = load ptr, ptr %12, align 8
  call void %59(ptr noundef %60, ptr noundef %61, ptr noundef %62)
  br label %109

63:                                               ; preds = %47
  %64 = load ptr, ptr %5, align 8
  %65 = load ptr, ptr %64, align 8
  %66 = getelementptr inbounds %struct.JNINativeInterface_, ptr %65, i32 0, i32 170
  %67 = load ptr, ptr %66, align 8
  %68 = load ptr, ptr %5, align 8
  %69 = load ptr, ptr %7, align 8
  %70 = load ptr, ptr %12, align 8
  call void %67(ptr noundef %68, ptr noundef %69, ptr noundef %70)
  %71 = load ptr, ptr %5, align 8
  %72 = call zeroext i8 @checkForAndClearThrowable(ptr noundef %71)
  store i8 %72, ptr %10, align 1
  %73 = load i8, ptr %10, align 1
  %74 = icmp ne i8 %73, 0
  br i1 %74, label %105, label %75

75:                                               ; preds = %63
  %76 = load i8, ptr %8, align 1
  %77 = icmp ne i8 %76, 0
  br i1 %77, label %78, label %86

78:                                               ; preds = %75
  %79 = load ptr, ptr %9, align 8
  %80 = load ptr, ptr %79, align 8
  %81 = getelementptr inbounds %struct.jvmtiInterface_1_, ptr %80, i32 0, i32 148
  %82 = load ptr, ptr %81, align 8
  %83 = load ptr, ptr %9, align 8
  %84 = getelementptr inbounds [4096 x i8], ptr %15, i64 0, i64 0
  %85 = call i32 %82(ptr noundef %83, ptr noundef %84)
  store i32 %85, ptr %11, align 4
  br label %94

86:                                               ; preds = %75
  %87 = load ptr, ptr %9, align 8
  %88 = load ptr, ptr %87, align 8
  %89 = getelementptr inbounds %struct.jvmtiInterface_1_, ptr %88, i32 0, i32 150
  %90 = load ptr, ptr %89, align 8
  %91 = load ptr, ptr %9, align 8
  %92 = getelementptr inbounds [4096 x i8], ptr %15, i64 0, i64 0
  %93 = call i32 %90(ptr noundef %91, ptr noundef %92)
  store i32 %93, ptr %11, align 4
  br label %94

94:                                               ; preds = %86, %78
  %95 = load i32, ptr %11, align 4
  %96 = icmp eq i32 %95, 112
  br i1 %96, label %97, label %98

97:                                               ; preds = %94
  br label %109

98:                                               ; preds = %94
  %99 = load i32, ptr %11, align 4
  %100 = icmp ne i32 %99, 0
  br i1 %100, label %101, label %104

101:                                              ; preds = %98
  %102 = load ptr, ptr %5, align 8
  %103 = load i32, ptr %11, align 4
  call void @createAndThrowThrowableFromJVMTIErrorCode(ptr noundef %102, i32 noundef %103)
  br label %104

104:                                              ; preds = %101, %98
  br label %105

105:                                              ; preds = %104, %63
  br label %106

106:                                              ; preds = %105, %44, %32
  br label %107

107:                                              ; preds = %106, %4
  %108 = load ptr, ptr %5, align 8
  call void @mapThrownThrowableIfNecessary(ptr noundef %108, ptr noundef @mapAllCheckedToInternalErrorMapper)
  br label %109

109:                                              ; preds = %107, %97, %54
  ret void
}