; Function Attrs: nounwind uwtable
define hidden void @appendToClassLoaderSearch(ptr noundef %0, ptr nocapture noundef readonly %1, ptr noundef %2, i8 noundef zeroext %3) local_unnamed_addr #0 {
  %5 = alloca i8, align 1
  %6 = alloca [4096 x i8], align 16
  %7 = getelementptr inbounds i8, ptr %1, i64 8
  %8 = load ptr, ptr %7, align 8
  %9 = load ptr, ptr %0, align 8
  %10 = getelementptr inbounds i8, ptr %9, i64 1344
  %11 = load ptr, ptr %10, align 8
  %12 = tail call i32 %11(ptr noundef nonnull %0, ptr noundef %2) #10
  %13 = tail call zeroext i8 @checkForAndClearThrowable(ptr noundef nonnull %0) #10
  %.not = icmp eq i8 %13, 0
  br i1 %.not, label %14, label %40

14:                                               ; preds = %4
  %15 = load ptr, ptr %0, align 8
  %16 = getelementptr inbounds i8, ptr %15, i64 1352
  %17 = load ptr, ptr %16, align 8
  %18 = call ptr %17(ptr noundef nonnull %0, ptr noundef %2, ptr noundef nonnull %5) #10
  %19 = call zeroext i8 @checkForAndClearThrowable(ptr noundef nonnull %0) #10
  %20 = icmp eq i8 %19, 0
  %21 = icmp ne ptr %18, null
  %or.cond = select i1 %20, i1 %21, i1 false
  br i1 %or.cond, label %22, label %40

22:                                               ; preds = %14
  %23 = call i32 @convertUtf8ToPlatformString(ptr noundef nonnull %18, i32 noundef %12, ptr noundef nonnull %6, i32 noundef 4096) #10
  %24 = icmp slt i32 %23, 0
  br i1 %24, label %25, label %29

25:                                               ; preds = %22
  call void @createAndThrowInternalError(ptr noundef nonnull %0) #10
  %26 = load ptr, ptr %0, align 8
  %27 = getelementptr inbounds i8, ptr %26, i64 1360
  %28 = load ptr, ptr %27, align 8
  call void %28(ptr noundef nonnull %0, ptr noundef %2, ptr noundef nonnull %18) #10
  br label %41

29:                                               ; preds = %22
  %30 = load ptr, ptr %0, align 8
  %31 = getelementptr inbounds i8, ptr %30, i64 1360
  %32 = load ptr, ptr %31, align 8
  call void %32(ptr noundef nonnull %0, ptr noundef %2, ptr noundef nonnull %18) #10
  %33 = call zeroext i8 @checkForAndClearThrowable(ptr noundef nonnull %0) #10
  %.not37 = icmp eq i8 %33, 0
  br i1 %.not37, label %34, label %40

34:                                               ; preds = %29
  %.not38 = icmp eq i8 %3, 0
  %35 = load ptr, ptr %8, align 8
  %. = select i1 %.not38, i64 1200, i64 1184
  %36 = getelementptr inbounds i8, ptr %35, i64 %.
  %37 = load ptr, ptr %36, align 8
  %38 = call i32 %37(ptr noundef nonnull %8, ptr noundef nonnull %6) #10
  switch i32 %38, label %39 [
    i32 112, label %41
    i32 0, label %40
  ]

39:                                               ; preds = %34
  call void @createAndThrowThrowableFromJVMTIErrorCode(ptr noundef nonnull %0, i32 noundef %38) #10
  br label %40

40:                                               ; preds = %34, %14, %39, %29, %4
  call void @mapThrownThrowableIfNecessary(ptr noundef nonnull %0, ptr noundef nonnull @mapAllCheckedToInternalErrorMapper) #10
  br label %41

41:                                               ; preds = %34, %40, %25
  ret void
}